#include <math.h>
#include <stdio.h>
#include <stdlib.h>
#include <string.h>

void main()
{
	int a[26],i,x,y,b[26];
	char moto[1000],genzai[1000];
	for(i=0;i<26;i++)
	{
		a[i]=0;
		b[i]=0;
	}
	scanf("%s",moto);
	scanf("%s",genzai);
	x=strlen(moto);
	y=strlen(genzai);
	if(x!=y)
		printf("NO\n");
	else
	{
		for(i=0;i<x;i++)
		{
			a[moto[i]-'a']++;
			b[genzai[i]-'a']++;
		}
		for(i=0;i<25;i++)
			if(a[i]!=b[i])
				break;
		if(i==25)
			printf("YES\n");
		else
			printf("NO\n");
	}
}
		
